; Function Attrs: mustprogress nofree norecurse nosync nounwind willreturn memory(argmem: read) uwtable
define internal range(i32 -1, 3) i32 @pg_johab_dsplen(ptr noundef readonly captures(none) %0) #0 {
  %.val = load i8, ptr %0, align 1
  %or.cond.not.not.i = icmp sgt i8 %.val, -1
  br i1 %or.cond.not.not.i, label %2, label %pg_euc_dsplen.exit

2:                                                ; preds = %1
  %3 = icmp eq i8 %.val, 0
  %4 = icmp samesign ult i8 %.val, 32
  %5 = icmp eq i8 %.val, 127
  %or.cond.i.i = or i1 %4, %5
  %spec.select.i.i = select i1 %or.cond.i.i, i32 -1, i32 1
  %.0.i.i = select i1 %3, i32 0, i32 %spec.select.i.i
  br label %pg_euc_dsplen.exit

pg_euc_dsplen.exit:                               ; preds = %1, %2
  %.0.i = phi i32 [ %.0.i.i, %2 ], [ 2, %1 ]
  ret i32 %.0.i
}